ccopy_reg
_reconstructor
p0
(cevaluate
VSMClassifier
p1
c__builtin__
object
p2
Ntp3
Rp4
(dp5
S'docsTF'
p6
(lp7
sS'topVocabDic'
p8
(dp9
Vvideo
p10
I131
sVsaid
p11
I142
sV2014
p12
I125
sVphilippin
p13
I302
sVpeopl
p14
I132
sVhagupit
p15
I310
sVtyphoon
p16
I460
sVstorm
p17
I263
sVworld
p18
I129
sVnews
p19
I220
ssS'relevanceth'
p20
F0.75
sb.