ccopy_reg
_reconstructor
p0
(cevaluate
VSMClassifier
p1
c__builtin__
object
p2
Ntp3
Rp4
(dp5
S'docsTF'
p6
(lp7
sS'topVocabDic'
p8
(dp9
Vshoot
p10
I266
sVschool
p11
I111
sVsaid
p12
I145
sVtallahasse
p13
I93
sVvictim
p14
I82
sVmay
p15
I233
sVpeopl
p16
I87
sVshot
p17
I84
sVunivers
p18
I104
sVflorida
p19
I194
sVpolic
p20
I190
sVstate
p21
I179
sVgunman
p22
I87
sVfsu
p23
I216
sVstudent
p24
I136
sV2014
p25
I94
sVreport
p26
I81
sVnews
p27
I213
sVcampu
p28
I80
sVlibrari
p29
I139
ssS'relevanceth'
p30
F0.7
sb.