ccopy_reg
_reconstructor
p0
(cevaluate
VSMClassifier
p1
c__builtin__
object
p2
Ntp3
Rp4
(dp5
S'docsTF'
p6
(lp7
sS'topVocabDic'
p8
(dp9
Vcomment
p10
I91
sVvideo
p11
I110
sVsaid
p12
I130
sV2014
p13
I105
sVhome
p14
I83
sVphilippin
p15
I265
sVpeopl
p16
I114
sVyear
p17
I102
sVhaiyan
p18
I109
sVhagupit
p19
I273
sVtyphoon
p20
I426
sVevacu
p21
I75
sVstorm
p22
I224
sVworld
p23
I114
sVweather
p24
I102
sVnews
p25
I205
sVbloomberg
p26
I85
sVsuper
p27
I119
sVisland
p28
I76
sVwind
p29
I92
ssS'relevanceth'
p30
F0.75
sb.