ccopy_reg
_reconstructor
p0
(cevaluate
VSMClassifier
p1
c__builtin__
object
p2
Ntp3
Rp4
(dp5
S'docsTF'
p6
(lp7
sS'topVocabDic'
p8
(dp9
Vaustralia
p10
I233
sV2014
p11
I208
sVpolic
p12
I316
sVmoni
p13
I187
sVhostag
p14
I295
sVsydney
p15
I489
sVnew
p16
I250
sVnews
p17
I326
sVcafe
p18
I203
sVsieg
p19
I305
ssS'relevanceth'
p20
F0.75
sb.