ccopy_reg
_reconstructor
p0
(cevaluate
VSMClassifier
p1
c__builtin__
object
p2
Ntp3
Rp4
(dp5
S'docsTF'
p6
(lp7
sS'topVocabDic'
p8
(dp9
Vqz8501
p10
I166
sVsearch
p11
I351
sVsaid
p12
I381
sVflight
p13
I536
sVsingapor
p14
I163
sVairlin
p15
I166
sVindonesia
p16
I287
sVyear
p17
I172
sVindonesian
p18
I207
sVpasseng
p19
I153
sVair
p20
I245
sVairasia
p21
I573
sVreport
p22
I158
sVplane
p23
I449
sVcontact
p24
I155
sVnew
p25
I176
sVweather
p26
I160
sVnews
p27
I313
sVone
p28
I175
sVmiss
p29
I290
ssS'relevanceth'
p30
F0.75
sb.