ccopy_reg
_reconstructor
p0
(ceventUtils
VSMClassifier
p1
c__builtin__
object
p2
Ntp3
Rp4
(dp5
S'docsScalar'
p6
(lp7
F1.7754574438572437
aF1.212723972259248
aF1.5882801216586346
aF1.6142808856508766
aF1.502056203843975
aF1.7658016750347576
aF1.398552835209707
aF1.3464228319306106
aF1.5858098560067926
aF1.890679556970339
aF1.1032457592301514
aF1.481365736219265
aF1.539600717839002
aF1.517119933479876
aF1.4586127040472954
aF1.5331722942809192
aF1.765316824341939
aF1.5100585474109924
aF1.0696413665622813
aF1.3383239933256488
asS'docs'
p8
(lp9
(dp10
Vshoot
p11
F0.5882352941176471
sVsaid
p12
F0.7647058823529411
sVpolic
p13
F0.5294117647058824
sVsuspect
p14
I0
sVchurch
p15
F1.0
sV2015
p16
F0.23529411764705882
sVcharleston
p17
F0.9411764705882353
sa(dp18
g11
F0.6521739130434783
sg12
I0
sg13
F0.17391304347826086
sg14
F0.34782608695652173
sg15
F0.13043478260869565
sg16
F0.34782608695652173
sg17
F0.8695652173913043
sa(dp19
g11
F0.8518518518518519
sg12
F0.6666666666666666
sg13
F0.37037037037037035
sg14
F0.1111111111111111
sg15
F1.0
sg16
F0.07407407407407407
sg17
F0.4444444444444444
sa(dp20
g11
F0.5
sg12
F0.5833333333333334
sg13
F0.4166666666666667
sg14
F0.375
sg15
F1.0
sg16
F0.08333333333333333
sg17
F0.8333333333333334
sa(dp21
g11
F0.3333333333333333
sg12
F0.4444444444444444
sg13
F0.19444444444444445
sg14
F0.19444444444444445
sg15
F1.0
sg16
F0.3611111111111111
sg17
F0.8611111111111112
sa(dp22
g11
F1.0
sg12
F0.16666666666666666
sg13
F0.8333333333333334
sg14
F0.3333333333333333
sg15
F0.75
sg16
F0.16666666666666666
sg17
F0.8333333333333334
sa(dp23
g11
F0.15384615384615385
sg12
F0.1282051282051282
sg13
F0.10256410256410256
sg14
F0.10256410256410256
sg15
F1.0
sg16
F0.5128205128205128
sg17
F0.7948717948717948
sa(dp24
g11
F0.5652173913043478
sg12
F0.13043478260869565
sg13
F0.391304347826087
sg14
F0.30434782608695654
sg15
F1.0
sg16
F0.043478260869565216
sg17
F0.4782608695652174
sa(dp25
g11
F0.6923076923076923
sg12
F0.7692307692307693
sg13
F0.38461538461538464
sg14
F0.23076923076923078
sg15
F1.0
sg16
F0.3076923076923077
sg17
F0.38461538461538464
sa(dp26
g11
F0.9565217391304348
sg12
I0
sg13
F0.043478260869565216
sg14
F0.2608695652173913
sg15
F0.8695652173913043
sg16
F1.0
sg17
F0.9130434782608695
sa(dp27
g11
F0.3675675675675676
sg12
F0.1891891891891892
sg13
F0.5783783783783784
sg14
F0.3621621621621622
sg15
F0.5675675675675675
sg16
F0.07567567567567568
sg17
F0.5027027027027027
sa(dp28
g11
F1.0
sg12
F0.25
sg13
F0.4166666666666667
sg14
F0.6666666666666666
sg15
F0.3333333333333333
sg16
F0.25
sg17
F0.5833333333333334
sa(dp29
g11
F0.8333333333333334
sg12
F0.2777777777777778
sg13
F0.5
sg14
F0.16666666666666666
sg15
F1.0
sg16
F0.1111111111111111
sg17
F0.5555555555555556
sa(dp30
g11
F0.4772727272727273
sg12
F1.0
sg13
F0.2727272727272727
sg14
F0.1590909090909091
sg15
F0.8863636363636364
sg16
F0.045454545454545456
sg17
F0.4318181818181818
sa(dp31
g11
F0.7857142857142857
sg12
F0.07142857142857142
sg13
F0.21428571428571427
sg14
F0.5
sg15
F0.2857142857142857
sg16
F0.35714285714285715
sg17
F1.0
sa(dp32
g11
F0.5555555555555556
sg12
F0.7111111111111111
sg13
F0.5111111111111111
sg14
F0.17777777777777778
sg15
F1.0
sg16
F0.06666666666666667
sg17
F0.4888888888888889
sa(dp33
g11
F1.0
sg12
F0.10526315789473684
sg13
F0.7368421052631579
sg14
F0.8421052631578947
sg15
F0.631578947368421
sg16
F0.5263157894736842
sg17
F0.42105263157894735
sa(dp34
g11
F0.5294117647058824
sg12
F0.5882352941176471
sg13
F0.47058823529411764
sg14
F0.17647058823529413
sg15
F1.0
sg16
F0.23529411764705882
sg17
F0.5882352941176471
sa(dp35
g11
F0.21428571428571427
sg12
F0.03571428571428571
sg13
F0.07142857142857142
sg14
I0
sg15
F0.21428571428571427
sg16
F1.0
sg17
F0.21428571428571427
sa(dp36
g11
F0.6666666666666666
sg12
F0.26666666666666666
sg13
F0.26666666666666666
sg14
F0.06666666666666667
sg15
F1.0
sg16
F0.2
sg17
F0.4
sasS'roundPrec'
p37
I3
sS'vocabDic'
p38
(dp39
g11
F12.72329498403667
sg12
F7.149073727408631
sg13
F7.4787964406957546
sg14
F5.37787240090713
sg15
F15.66884348463296
sg16
F5.999957234342751
sg17
F12.539627739795998
ssS'relevanceth'
p40
F0.765
sS'error'
p41
F0.15
sb.