ccopy_reg
_reconstructor
p0
(c__main__
VSMClassifier
p1
c__builtin__
object
p2
Ntp3
Rp4
(dp5
S'docs'
p6
(lp7
(dp8
Vshoot
p9
F0.6551724137931034
sVsaid
p10
F0.4482758620689655
sVpolic
p11
F0.41379310344827586
sVjune
p12
F0.10344827586206896
sVsuspect
p13
F0.10344827586206896
sVchurch
p14
F1.0
sV2015
p15
F0.1724137931034483
sVcharleston
p16
F1.0
sVsouth
p17
F0.13793103448275862
sVcarolina
p18
F0.10344827586206896
sa(dp19
g9
F0.6551724137931034
sg10
I0
sg11
F0.13793103448275862
sg12
F0.20689655172413793
sg13
F0.41379310344827586
sg14
F0.2413793103448276
sg15
F0.4482758620689655
sg16
F1.0
sg17
F0.06896551724137931
sg18
F0.06896551724137931
sa(dp20
g9
F0.8928571428571429
sg10
F0.6428571428571429
sg11
F0.39285714285714285
sg12
I0
sg13
F0.14285714285714285
sg14
F1.0
sg15
F0.07142857142857142
sg16
F0.5
sg17
F0.2857142857142857
sg18
F0.2857142857142857
sa(dp21
g9
F0.5882352941176471
sg10
F0.7647058823529411
sg11
F0.5882352941176471
sg12
F0.058823529411764705
sg13
F0.5882352941176471
sg14
F1.0
sg15
F0.35294117647058826
sg16
F0.8235294117647058
sg17
F0.5294117647058824
sg18
F0.47058823529411764
sa(dp22
g9
F0.9696969696969697
sg10
F0.24242424242424243
sg11
F0.10606060606060606
sg12
F0.10606060606060606
sg13
F0.15151515151515152
sg14
F0.7575757575757576
sg15
F0.19696969696969696
sg16
F0.5757575757575758
sg17
F0.12121212121212122
sg18
F0.09090909090909091
sa(dp23
g9
F0.9285714285714286
sg10
F0.14285714285714285
sg11
F0.7142857142857143
sg12
F0.9285714285714286
sg13
F0.2857142857142857
sg14
F0.6428571428571429
sg15
F1.0
sg16
F0.7857142857142857
sg17
F0.07142857142857142
sg18
F0.14285714285714285
sa(dp24
g9
F0.48214285714285715
sg10
F0.23214285714285715
sg11
F0.42857142857142855
sg12
F0.6428571428571429
sg13
F0.21428571428571427
sg14
F0.8214285714285714
sg15
F0.6428571428571429
sg16
F0.9285714285714286
sg17
F0.7142857142857143
sg18
F0.75
sa(dp25
g9
F0.5833333333333334
sg10
F0.125
sg11
F0.375
sg12
F0.9166666666666666
sg13
F0.2916666666666667
sg14
F1.0
sg15
F0.9583333333333334
sg16
F0.7083333333333334
sg17
F0.125
sg18
F0.041666666666666664
sa(dp26
g9
F0.6923076923076923
sg10
F0.38461538461538464
sg11
F0.19230769230769232
sg12
F0.07692307692307693
sg13
F0.23076923076923078
sg14
F1.0
sg15
F0.15384615384615385
sg16
F0.6538461538461539
sg17
F0.19230769230769232
sg18
F0.11538461538461539
sa(dp27
g9
F0.8333333333333334
sg10
F0.023809523809523808
sg11
I0
sg12
F0.5238095238095238
sg13
F0.07142857142857142
sg14
F0.8571428571428571
sg15
F1.0
sg16
F0.8809523809523809
sg17
F0.023809523809523808
sg18
F0.023809523809523808
sa(dp28
g9
F0.415
sg10
F0.2
sg11
F0.565
sg12
F0.225
sg13
F0.345
sg14
F0.57
sg15
F0.285
sg16
F0.58
sg17
F0.22
sg18
F0.205
sa(dp29
g9
F1.0
sg10
F0.14285714285714285
sg11
F0.23809523809523808
sg12
F0.09523809523809523
sg13
F0.5238095238095238
sg14
F0.38095238095238093
sg15
F0.14285714285714285
sg16
F0.8095238095238095
sg17
F0.14285714285714285
sg18
F0.3333333333333333
sa(dp30
g9
F0.85
sg10
F0.25
sg11
F0.5
sg12
F0.45
sg13
F0.15
sg14
F1.0
sg15
F0.55
sg16
F0.5
sg17
F0.45
sg18
F0.45
sa(dp31
g9
F0.6136363636363636
sg10
F1.0
sg11
F0.3181818181818182
sg12
F0.13636363636363635
sg13
F0.18181818181818182
sg14
F1.0
sg15
F0.13636363636363635
sg16
F0.5454545454545454
sg17
F0.13636363636363635
sg18
F0.20454545454545456
sa(dp32
g9
F0.7391304347826086
sg10
F0.043478260869565216
sg11
F0.17391304347826086
sg12
F0.21739130434782608
sg13
F0.30434782608695654
sg14
F0.21739130434782608
sg15
F0.30434782608695654
sg16
F1.0
sg17
F0.08695652173913043
sg18
F0.08695652173913043
sa(dp33
g9
F0.23776223776223776
sg10
F0.23076923076923078
sg11
F0.20279720279720279
sg12
F0.013986013986013986
sg13
F0.07692307692307693
sg14
F0.35664335664335667
sg15
F0.02097902097902098
sg16
F0.2097902097902098
sg17
F0.16083916083916083
sg18
F0.14685314685314685
sa(dp34
g9
F0.40816326530612246
sg10
F0.04081632653061224
sg11
F0.30612244897959184
sg12
F0.8979591836734694
sg13
F0.3469387755102041
sg14
F0.2653061224489796
sg15
F1.0
sg16
F0.2653061224489796
sg17
F0.14285714285714285
sg18
F0.10204081632653061
sa(dp35
g9
F0.52
sg10
F0.4
sg11
F0.4
sg12
F0.08
sg13
F0.28
sg14
F1.0
sg15
F0.2
sg16
F0.64
sg17
F0.32
sg18
F0.28
sa(dp36
g9
F0.16666666666666666
sg10
F0.027777777777777776
sg11
F0.16666666666666666
sg12
I0
sg13
I0
sg14
F0.16666666666666666
sg15
F0.8888888888888888
sg16
F0.16666666666666666
sg17
F0.2222222222222222
sg18
F0.19444444444444445
sa(dp37
g9
F0.8181818181818182
sg10
F0.18181818181818182
sg11
F0.18181818181818182
sg12
F0.045454545454545456
sg13
F0.22727272727272727
sg14
F1.0
sg15
F0.13636363636363635
sg16
F0.7727272727272727
sg17
F0.18181818181818182
sg18
F0.18181818181818182
sa(dp38
g9
F0.8148148148148148
sg10
F0.5555555555555556
sg11
F0.48148148148148145
sg12
F0.1111111111111111
sg13
F0.37037037037037035
sg14
F1.0
sg15
F0.18518518518518517
sg16
F0.7777777777777778
sg17
F0.25925925925925924
sg18
F0.2962962962962963
sa(dp39
g9
F0.375
sg10
I0
sg11
F0.1875
sg12
F0.125
sg13
F0.0625
sg14
F0.5
sg15
F0.8125
sg16
F0.5
sg17
F0.3125
sg18
F0.375
sa(dp40
g9
F0.5476190476190477
sg10
F0.21428571428571427
sg11
F0.3333333333333333
sg12
F0.14285714285714285
sg13
F0.16666666666666666
sg14
F0.35714285714285715
sg15
F0.2857142857142857
sg16
F0.3333333333333333
sg17
F0.2619047619047619
sg18
F0.23809523809523808
sa(dp41
g9
F0.2692307692307692
sg10
F0.07692307692307693
sg11
F0.2692307692307692
sg12
F0.038461538461538464
sg13
F0.15384615384615385
sg14
F0.4230769230769231
sg15
F0.23076923076923078
sg16
F0.23076923076923078
sg17
I0
sg18
I0
sa(dp42
g9
F0.48
sg10
F0.02
sg11
F0.28
sg12
F0.98
sg13
F0.3
sg14
F1.0
sg15
F0.98
sg16
F0.8
sg17
F0.08
sg18
F0.06
sa(dp43
g9
F0.48148148148148145
sg10
F0.14814814814814814
sg11
F0.3333333333333333
sg12
F0.2222222222222222
sg13
F0.3333333333333333
sg14
F1.0
sg15
F0.2962962962962963
sg16
F0.5555555555555556
sg17
F0.3333333333333333
sg18
F0.2962962962962963
sa(dp44
g9
F0.8947368421052632
sg10
F0.3157894736842105
sg11
F0.3157894736842105
sg12
F0.10526315789473684
sg13
F0.2631578947368421
sg14
F1.0
sg15
F0.21052631578947367
sg16
F0.8421052631578947
sg17
F0.2631578947368421
sg18
F0.3157894736842105
sa(dp45
g9
F0.2972972972972973
sg10
F0.08108108108108109
sg11
F0.10810810810810811
sg12
F0.02702702702702703
sg13
F0.08108108108108109
sg14
F0.13513513513513514
sg15
F0.05405405405405406
sg16
F0.7027027027027027
sg17
F0.05405405405405406
sg18
I0
sa(dp46
g9
F1.0
sg10
F0.3333333333333333
sg11
F0.3333333333333333
sg12
F0.2857142857142857
sg13
F0.2857142857142857
sg14
F1.0
sg15
F0.42857142857142855
sg16
F0.6190476190476191
sg17
F0.14285714285714285
sg18
F0.09523809523809523
sa(dp47
g9
F0.7
sg10
F0.75
sg11
F0.4
sg12
F0.2
sg13
F0.7
sg14
F0.9
sg15
F0.3
sg16
F1.0
sg17
F0.2
sg18
F0.2
sa(dp48
g9
F1.0
sg10
F0.19318181818181818
sg11
F0.23863636363636365
sg12
F0.056818181818181816
sg13
F0.29545454545454547
sg14
F0.9545454545454546
sg15
F0.3409090909090909
sg16
F0.9318181818181818
sg17
F0.011363636363636364
sg18
F0.045454545454545456
sa(dp49
g9
F1.0
sg10
F0.5263157894736842
sg11
F0.3684210526315789
sg12
F0.05263157894736842
sg13
F0.3684210526315789
sg14
F1.0
sg15
F0.10526315789473684
sg16
F1.0
sg17
F0.3684210526315789
sg18
F0.3157894736842105
sasS'vocabDic'
p50
(dp51
g9
F20.909543917831105
sg10
F8.738818949417333
sg11
F10.05080386492074
sg12
F8.07255582700362
sg13
F8.310368931920284
sg14
F23.547243840308735
sg15
F12.891654926800967
sg16
F21.63928286071365
sg17
F6.620831369025156
sg18
F6.516294671548005
ssS'relevanceth'
p52
F0.504329021340906
sS'docsScalar'
p53
(lp54
F1.6977287758746444
aF1.3896166675593022
aF1.674386881390149
aF1.9826234760414962
aF1.4183469212363795
aF2.0959143930173156
aF1.9880061285989383
aF1.964529205687714
aF1.4915938022819475
aF1.8671889453997763
aF1.2385677212005808
aF1.5208304212067916
aF1.7937391114652097
aF1.7046969629635615
aF1.368702281625843
aF0.6132751511935292
aF1.5363159035829292
aF1.5184202316881845
aF0.9945840994426753
aF1.5719651332536893
aF1.7743021580745901
aF1.2624381172952597
aF0.9750283442592033
aF0.6793662204867574
aF1.9924858845171276
aF1.4562669075064814
aF1.7328502771741396
aF0.7948887118839321
aF1.7268061299494044
aF1.9293781381574737
aF1.7557461741661786
aF1.9487903770077493
asb.