ccopy_reg
_reconstructor
p0
(ceventUtils
VSMClassifier
p1
c__builtin__
object
p2
Ntp3
Rp4
(dp5
S'docsScalar'
p6
(lp7
F1.4470236870972115
aF2.1396553460779613
aF1.718634255362002
aF1.5312319229346216
aF1.6110727964792764
aF2.2878756522153907
aF0.42351376049125466
aF1.9241827716833386
aF1.8245242911205344
aF2.1065374432940898
aF1.8
aF1.7549928774784243
aF2.1112713986398233
aF0.6555547773570889
aF1.2668615834434866
aF1.3716331692622514
aF1.4028057221653634
aF1.9849433241279206
aF2.2135943621178655
aF1.298052872665424
aF1.3888823142513684
aF2.0590457550738406
asS'docs'
p8
(lp9
(dp10
Vshoot
p11
F0.6
sVsaid
p12
F0.17142857142857143
sVcommun
p13
F0.5714285714285714
sVoregon
p14
F0.2571428571428571
sVumpqua
p15
F0.37142857142857144
sVcolleg
p16
F0.5714285714285714
sVstudent
p17
F0.2
sV2015
p18
F0.8285714285714286
sVgunman
p19
F0.05714285714285714
sVroseburg
p20
F0.34285714285714286
sa(dp21
g11
F0.875
sg12
I0
sg13
F1.0
sg14
F0.875
sg15
F0.375
sg16
F1.0
sg17
F0.375
sg18
F0.375
sg19
F0.75
sg20
F0.25
sa(dp22
g11
F0.7222222222222222
sg12
F1.0
sg13
F0.6666666666666666
sg14
F0.3888888888888889
sg15
F0.5
sg16
F0.5555555555555556
sg17
F0.4444444444444444
sg18
F0.16666666666666666
sg19
F0.05555555555555555
sg20
F0.2222222222222222
sa(dp23
g11
F0.3333333333333333
sg12
F1.0
sg13
F0.2857142857142857
sg14
F0.2857142857142857
sg15
F0.42857142857142855
sg16
F0.47619047619047616
sg17
F0.23809523809523808
sg18
F0.19047619047619047
sg19
F0.7142857142857143
sg20
F0.23809523809523808
sa(dp24
g11
F0.6666666666666666
sg12
F0.4
sg13
F0.4666666666666667
sg14
F0.26666666666666666
sg15
F0.26666666666666666
sg16
F0.6
sg17
F0.26666666666666666
sg18
F1.0
sg19
F0.2
sg20
F0.4
sa(dp25
g11
F0.625
sg12
F1.0
sg13
F0.75
sg14
F0.75
sg15
F0.25
sg16
F0.875
sg17
F0.625
sg18
F0.5
sg19
F1.0
sg20
F0.5
sa(dp26
g11
F0.1346153846153846
sg12
F0.3076923076923077
sg13
F0.09615384615384616
sg14
F0.019230769230769232
sg15
F0.09615384615384616
sg16
F0.15384615384615385
sg17
I0
sg18
F0.019230769230769232
sg19
I0
sg20
F0.15384615384615385
sa(dp27
g11
F1.0
sg12
F0.7272727272727273
sg13
F0.6363636363636364
sg14
F0.8181818181818182
sg15
F0.36363636363636365
sg16
F0.6363636363636364
sg17
F0.2727272727272727
sg18
F0.2727272727272727
sg19
F0.09090909090909091
sg20
F0.6363636363636364
sa(dp28
g11
F1.0
sg12
F0.26666666666666666
sg13
F0.7333333333333333
sg14
F0.6
sg15
F0.6
sg16
F0.8
sg17
F0.26666666666666666
sg18
F0.26666666666666666
sg19
I0
sg20
F0.4666666666666667
sa(dp29
g11
F1.0
sg12
F0.875
sg13
F0.625
sg14
F0.125
sg15
F0.625
sg16
F0.75
sg17
F0.5
sg18
F1.0
sg19
I0
sg20
F0.25
sa(dp30
g11
F0.7
sg12
F0.3
sg13
F0.8
sg14
F0.6
sg15
F0.4
sg16
F1.0
sg17
F0.3
sg18
F0.4
sg19
I0
sg20
F0.5
sa(dp31
g11
F1.0
sg12
F0.6
sg13
F0.5
sg14
F0.6
sg15
F0.5
sg16
F0.6
sg17
F0.1
sg18
F0.6
sg19
F0.3
sg20
F0.2
sa(dp32
g11
F0.9130434782608695
sg12
F0.9130434782608695
sg13
F0.782608695652174
sg14
F0.21739130434782608
sg15
F0.2608695652173913
sg16
F0.8260869565217391
sg17
F1.0
sg18
F0.17391304347826086
sg19
F0.4782608695652174
sg20
F0.34782608695652173
sa(dp33
g11
I0
sg12
I0
sg13
I0
sg14
F0.2727272727272727
sg15
F0.2727272727272727
sg16
F0.2727272727272727
sg17
I0
sg18
F0.45454545454545453
sg19
I0
sg20
I0
sa(dp34
g11
I0
sg12
F0.1111111111111111
sg13
F0.7777777777777778
sg14
F0.2222222222222222
sg15
F0.6666666666666666
sg16
F0.6666666666666666
sg17
I0
sg18
I0
sg19
I0
sg20
F0.2222222222222222
sa(dp35
g11
F0.5
sg12
F1.0
sg13
F0.32142857142857145
sg14
F0.14285714285714285
sg15
F0.07142857142857142
sg16
F0.2857142857142857
sg17
F0.42857142857142855
sg18
F0.39285714285714285
sg19
F0.14285714285714285
sg20
F0.25
sa(dp36
g11
F0.391304347826087
sg12
F1.0
sg13
F0.2608695652173913
sg14
F0.2608695652173913
sg15
F0.08695652173913043
sg16
F0.34782608695652173
sg17
F0.5652173913043478
sg18
F0.13043478260869565
sg19
F0.30434782608695654
sg20
F0.34782608695652173
sa(dp37
g11
F1.0
sg12
F0.8
sg13
F0.8
sg14
F0.5
sg15
F0.7
sg16
F0.7
sg17
F0.3
sg18
F0.4
sg19
F0.3
sg20
F0.3
sa(dp38
g11
F0.9
sg12
I0
sg13
F1.0
sg14
F0.9
sg15
F0.9
sg16
F0.9
sg17
F0.4
sg18
F0.5
sg19
I0
sg20
F0.5
sa(dp39
g11
F0.39622641509433965
sg12
I0
sg13
F0.3584905660377358
sg14
F0.37735849056603776
sg15
F0.3584905660377358
sg16
F0.3584905660377358
sg17
I0
sg18
F1.0
sg19
I0
sg20
I0
sa(dp40
g11
F0.46153846153846156
sg12
F1.0
sg13
F0.2564102564102564
sg14
F0.28205128205128205
sg15
F0.15384615384615385
sg16
F0.3333333333333333
sg17
F0.46153846153846156
sg18
F0.02564102564102564
sg19
F0.4358974358974359
sg20
F0.1794871794871795
sa(dp41
g11
F0.7272727272727273
sg12
F0.9090909090909091
sg13
F0.18181818181818182
sg14
F0.7272727272727273
sg15
F0.18181818181818182
sg16
F1.0
sg17
F0.45454545454545453
sg18
F0.2727272727272727
sg19
F1.0
sg20
F0.09090909090909091
sasS'roundPrec'
p42
I3
sS'vocabDic'
p43
(dp44
g11
F13.946223036830093
sg12
F12.381305771523161
sg13
F11.870730620669095
sg14
F9.48857529308719
sg15
F8.42926037593798
sg16
F13.70922956134195
sg17
F7.198473024559981
sg18
F8.969457716196846
sg19
F5.82925649229997
sg20
F6.398321726582596
ssS'relevanceth'
p45
F0.727
sS'error'
p46
F0.05
sb.