ccopy_reg
_reconstructor
p0
(cevaluate
VSMClassifier
p1
c__builtin__
object
p2
Ntp3
Rp4
(dp5
S'docsTF'
p6
(lp7
sS'vocabScalar'
p8
F25.172142140853992
sS'topVocabDic'
p9
(dp10
Vone
p11
I154
sVsearch
p12
I313
sVsaid
p13
I341
sVflight
p14
I471
sVindonesia
p15
I241
sVindonesian
p16
I188
sVair
p17
I200
sVairasia
p18
I511
sVplane
p19
I395
sVcontact
p20
I145
sVyear
p21
I153
sVweather
p22
I152
sVnews
p23
I293
sVqz8501
p24
I156
sVmiss
p25
I250
ssS'relevanceth'
p26
F0.2
sb.