ccopy_reg
_reconstructor
p0
(cevaluate
VSMClassifier
p1
c__builtin__
object
p2
Ntp3
Rp4
(dp5
S'docsTF'
p6
(lp7
sS'topVocabDic'
p8
(dp9
Vsearch
p10
I348
sVsaid
p11
I382
sVflight
p12
I535
sVindonesia
p13
I287
sVindonesian
p14
I206
sVair
p15
I245
sVairasia
p16
I571
sVplane
p17
I447
sVnews
p18
I315
sVmiss
p19
I279
ssS'relevanceth'
p20
F0.75
sb.