ccopy_reg
_reconstructor
p0
(cevaluate
VSMClassifier
p1
c__builtin__
object
p2
Ntp3
Rp4
(dp5
S'docsTF'
p6
(lp7
sS'vocabScalar'
p8
F26.249187590579936
sS'topVocabDic'
p9
(dp10
Vsaid
p11
I381
sVpeopl
p12
I423
sVnepal
p13
I922
sVindia
p14
I318
sVearthquak
p15
I684
sV2015
p16
I330
sVreport
p17
I258
sVkill
p18
I215
sVbuild
p19
I190
sVquak
p20
I305
sVhome
p21
I195
sVkathmandu
p22
I460
sVnews
p23
I250
sVshare
p24
I240
sVcollaps
p25
I187
ssS'relevanceth'
p26
F0.2
sb.