ccopy_reg
_reconstructor
p0
(cevaluate
VSMClassifier
p1
c__builtin__
object
p2
Ntp3
Rp4
(dp5
S'vocabScalar'
p6
F118.87065938064185
sS'topVocabDic'
p7
(dp8
Vtunisia
p9
F56.26015481676254
sVattack
p10
F59.39280605405803
sVhotel
p11
F52.92270032487392
sVbeach
p12
F47.68931262495675
sVtourist
p13
F48.604942982069886
ssS'relevanceth'
p14
F0.2
sb.