ccopy_reg
_reconstructor
p0
(cevaluate
VSMClassifier
p1
c__builtin__
object
p2
Ntp3
Rp4
(dp5
S'vocabScalar'
p6
F18.997728817817734
sS'topVocabDic'
p7
(dp8
Vsaid
p9
I164
sVcapsiz
p10
I147
sVrescu
p11
I119
sVpeopl
p12
I129
sVhundr
p13
I99
sVmediterranean
p14
I102
sVmigrant
p15
I242
sV2015
p16
I141
sVnews
p17
I181
sVboat
p18
I226
ssS'relevanceth'
p19
F0.2
sb.