ccopy_reg
_reconstructor
p0
(cevaluate
VSMClassifier
p1
c__builtin__
object
p2
Ntp3
Rp4
(dp5
S'docsTF'
p6
(lp7
sS'topVocabDic'
p8
(dp9
Vshoot
p10
I281
sVsaid
p11
I197
sVpolic
p12
I174
sVflorida
p13
I242
sVmay
p14
I169
sVstate
p15
I223
sVfsu
p16
I196
sVstudent
p17
I235
sVnews
p18
I264
sVlibrari
p19
I155
ssS'relevanceth'
p20
F0.75
sb.