ccopy_reg
_reconstructor
p0
(cevaluate
VSMClassifier
p1
c__builtin__
object
p2
Ntp3
Rp4
(dp5
S'vocabScalar'
p6
F171.36962298815894
sS'topVocabDic'
p7
(dp8
Vbland
p9
F100.01073510477005
sV2015
p10
F61.60958100828666
sVsay
p11
F67.4523669717957
sVvideo
p12
F61.55681189604525
sVsandra
p13
F85.03291817871312
ssS'relevanceth'
p14
F0.2
sb.