ccopy_reg
_reconstructor
p0
(cevaluate
VSMClassifier
p1
c__builtin__
object
p2
Ntp3
Rp4
(dp5
S'docsTF'
p6
(lp7
sS'vocabScalar'
p8
F22.736497906855327
sS'topVocabDic'
p9
(dp10
Vsaid
p11
I163
sVcapsiz
p12
I150
sVlibya
p13
I85
sVrescu
p14
I121
sVmay
p15
I89
sVpeopl
p16
I126
sVhundr
p17
I103
sVmediterranean
p18
I103
sVdead
p19
I87
sVmigrant
p20
I232
sVworld
p21
I94
sV2015
p22
I159
sVnews
p23
I236
sVboat
p24
I227
sVitalian
p25
I94
ssS'relevanceth'
p26
F0.2
sb.