ccopy_reg
_reconstructor
p0
(cevaluate
VSMClassifier
p1
c__builtin__
object
p2
Ntp3
Rp4
(dp5
S'vocabScalar'
p6
F121.14028104955435
sS'topVocabDic'
p7
(dp8
Vcourt
p9
F54.120993285222106
sVstate
p10
F50.00484923771631
sVmarriag
p11
F63.29776680130045
sVsuprem
p12
F47.30971306591364
sVsex
p13
F54.777592123863286
ssS'relevanceth'
p14
F0.2
sb.