ccopy_reg
_reconstructor
p0
(cevaluate
VSMClassifier
p1
c__builtin__
object
p2
Ntp3
Rp4
(dp5
S'vocabScalar'
p6
F135.51813035195667
sS'topVocabDic'
p7
(dp8
Vshoot
p9
F65.81362102521962
sVcharleston
p10
F66.85678405635149
sV2015
p11
F50.98680512856047
sVpolic
p12
F50.834485191234855
sVchurch
p13
F66.18234043463104
ssS'relevanceth'
p14
F0.2
sb.