ccopy_reg
_reconstructor
p0
(cevaluate
VSMClassifier
p1
c__builtin__
object
p2
Ntp3
Rp4
(dp5
S'docsTF'
p6
(lp7
sS'topVocabDic'
p8
(dp9
Vfranc
p10
I220
sVpolic
p11
I225
sVoffic
p12
I233
sVfrench
p13
I308
sVattack
p14
I483
sVpari
p15
I351
sV2015
p16
I254
sVnews
p17
I202
sVhebdo
p18
I388
sVcharli
p19
I426
ssS'relevanceth'
p20
F0.75
sb.