ccopy_reg
_reconstructor
p0
(cevaluate
VSMClassifier
p1
c__builtin__
object
p2
Ntp3
Rp4
(dp5
S'docsTF'
p6
(lp7
sS'topVocabDic'
p8
(dp9
Vaustralia
p10
I224
sV2014
p11
I202
sVpolic
p12
I320
sVmoni
p13
I188
sVhostag
p14
I284
sVsydney
p15
I484
sVnew
p16
I225
sVnews
p17
I316
sVcafe
p18
I196
sVsieg
p19
I307
ssS'relevanceth'
p20
F0.75
sb.