ccopy_reg
_reconstructor
p0
(cevaluate
VSMClassifier
p1
c__builtin__
object
p2
Ntp3
Rp4
(dp5
S'docsTF'
p6
(lp7
sS'vocabScalar'
p8
F23.56303066745969
sS'topVocabDic'
p9
(dp10
Vvideo
p11
I118
sVsaid
p12
I134
sVworld
p13
I118
sVphilippin
p14
I290
sVpeopl
p15
I136
sVyear
p16
I115
sVhaiyan
p17
I113
sVhagupit
p18
I299
sVtyphoon
p19
I447
sVstorm
p20
I231
sV2014
p21
I124
sVweather
p22
I105
sVnews
p23
I212
sVsuper
p24
I126
sVwind
p25
I100
ssS'relevanceth'
p26
F0.2
sb.