ccopy_reg
_reconstructor
p0
(cevaluate
VSMClassifier
p1
c__builtin__
object
p2
Ntp3
Rp4
(dp5
S'vocabScalar'
p6
F14.891903047869445
sS'topVocabDic'
p7
(dp8
Vfifa
p9
I675
sVworld
p10
I298
sVoffici
p11
I200
sVsoccer
p12
I224
sVcorrupt
p13
I200
ssS'relevanceth'
p14
F0.2
sb.