ccopy_reg
_reconstructor
p0
(cevaluate
VSMClassifier
p1
c__builtin__
object
p2
Ntp3
Rp4
(dp5
S'docsTF'
p6
(lp7
sS'topVocabDic'
p8
(dp9
Vcomment
p10
I144
sVfranc
p11
I217
sVvideo
p12
I162
sVsaid
p13
I191
sVsay
p14
I148
sVpolic
p15
I234
sVpeopl
p16
I172
sVoffic
p17
I234
sVfrench
p18
I304
sVmagazin
p19
I176
sVattack
p20
I487
sVkill
p21
I177
sVpari
p22
I354
sVshoot
p23
I143
sVworld
p24
I145
sV2015
p25
I251
sVnews
p26
I201
sVhebdo
p27
I383
sVgunmen
p28
I174
sVcharli
p29
I393
ssS'relevanceth'
p30
F0.75
sb.