ccopy_reg
_reconstructor
p0
(ceventUtils
VSMClassifier
p1
c__builtin__
object
p2
Ntp3
Rp4
(dp5
S'docs'
p6
(lp7
(dp8
Vlamb
p9
F0.13043478260869565
sVshoot
p10
F0.391304347826087
sVsaid
p11
F0.34782608695652173
sVpolic
p12
F0.391304347826087
sVprofessor
p13
F0.5217391304347826
sVunivers
p14
F0.7391304347826086
sVstate
p15
F1.0
sVdelta
p16
F0.9130434782608695
sVschmidt
p17
F0.08695652173913043
sVcampu
p18
F0.5217391304347826
sa(dp19
g9
F0.5882352941176471
sg10
F0.35294117647058826
sg11
F0.7058823529411765
sg12
F0.47058823529411764
sg13
F0.47058823529411764
sg14
F1.0
sg15
F0.8823529411764706
sg16
F0.7647058823529411
sg17
F0.47058823529411764
sg18
F0.6470588235294118
sa(dp20
g9
F0.55
sg10
F0.4
sg11
F1.0
sg12
F0.5
sg13
F0.4
sg14
F0.25
sg15
F0.75
sg16
F0.75
sg17
F0.5
sg18
F0.6
sa(dp21
g9
F0.5
sg10
F0.3333333333333333
sg11
F0.16666666666666666
sg12
F0.5
sg13
F0.6666666666666666
sg14
F0.16666666666666666
sg15
F0.6666666666666666
sg16
F0.6666666666666666
sg17
F0.3333333333333333
sg18
F0.6666666666666666
sa(dp22
g9
F1.0
sg10
I0
sg11
F0.6666666666666666
sg12
F0.4666666666666667
sg13
F0.3333333333333333
sg14
F0.5333333333333333
sg15
F0.8666666666666667
sg16
F0.8666666666666667
sg17
F0.7333333333333333
sg18
F0.4
sa(dp23
g9
F1.0
sg10
F0.3333333333333333
sg11
F0.5833333333333334
sg12
F0.5833333333333334
sg13
F0.5
sg14
F0.4166666666666667
sg15
F0.5833333333333334
sg16
F0.5833333333333334
sg17
F0.8333333333333334
sg18
F0.4166666666666667
sa(dp24
g9
F0.7647058823529411
sg10
F0.23529411764705882
sg11
F0.7058823529411765
sg12
F0.7058823529411765
sg13
F0.7058823529411765
sg14
F0.7647058823529411
sg15
F1.0
sg16
F0.9411764705882353
sg17
F0.5882352941176471
sg18
F0.47058823529411764
sa(dp25
g9
I0
sg10
I0
sg11
F0.01639344262295082
sg12
F0.00819672131147541
sg13
I0
sg14
F0.05737704918032787
sg15
F0.09836065573770492
sg16
F0.03278688524590164
sg17
F0.00819672131147541
sg18
F0.02459016393442623
sa(dp26
g9
F0.2727272727272727
sg10
F0.45454545454545453
sg11
F0.18181818181818182
sg12
F0.45454545454545453
sg13
F0.3181818181818182
sg14
F1.0
sg15
F0.8181818181818182
sg16
F0.7727272727272727
sg17
F0.18181818181818182
sg18
F0.5454545454545454
sa(dp27
g9
F1.0
sg10
F1.0
sg11
F0.5555555555555556
sg12
F0.4444444444444444
sg13
F0.5555555555555556
sg14
F0.8888888888888888
sg15
F1.0
sg16
F1.0
sg17
F0.8888888888888888
sg18
F0.3333333333333333
sa(dp28
g9
I0
sg10
F0.4444444444444444
sg11
F0.1111111111111111
sg12
F0.3333333333333333
sg13
F0.5
sg14
F0.5
sg15
F1.0
sg16
F0.7222222222222222
sg17
F0.3333333333333333
sg18
F0.2777777777777778
sa(dp29
g9
F0.6
sg10
F0.3
sg11
F0.9
sg12
F0.9
sg13
F1.0
sg14
F0.8
sg15
F0.6
sg16
F0.5
sg17
F0.5
sg18
F0.7
sa(dp30
g9
F0.3333333333333333
sg10
F0.6666666666666666
sg11
F0.5333333333333333
sg12
F0.3333333333333333
sg13
F0.5333333333333333
sg14
F0.7333333333333333
sg15
F0.6666666666666666
sg16
F0.6
sg17
F0.26666666666666666
sg18
F0.3333333333333333
sa(dp31
g9
F0.1
sg10
F1.0
sg11
F0.4
sg12
F0.4
sg13
F0.6
sg14
F0.9
sg15
F0.9
sg16
F0.9
sg17
F0.4
sg18
F0.3
sa(dp32
g9
F1.0
sg10
F0.3125
sg11
F0.5
sg12
F0.75
sg13
F0.25
sg14
F0.8125
sg15
F0.875
sg16
F0.875
sg17
F0.75
sg18
F0.375
sa(dp33
g9
F0.6666666666666666
sg10
F1.0
sg11
F0.42857142857142855
sg12
F0.7619047619047619
sg13
F0.5238095238095238
sg14
F0.6666666666666666
sg15
F0.9523809523809523
sg16
F0.9047619047619048
sg17
F0.14285714285714285
sg18
F0.9523809523809523
sa(dp34
g9
F0.4666666666666667
sg10
F0.5
sg11
F0.13333333333333333
sg12
F0.4666666666666667
sg13
F0.4666666666666667
sg14
F0.8
sg15
F1.0
sg16
F1.0
sg17
F0.16666666666666666
sg18
F0.5
sa(dp35
g9
F0.046296296296296294
sg10
F0.09259259259259259
sg11
F0.3055555555555556
sg12
F0.12037037037037036
sg13
F0.14814814814814814
sg14
F0.2222222222222222
sg15
F0.23148148148148148
sg16
F0.19444444444444445
sg17
F0.046296296296296294
sg18
F0.10185185185185185
sa(dp36
g9
F0.3
sg10
F0.6
sg11
F0.2
sg12
F0.3
sg13
F0.5
sg14
F0.3
sg15
F1.0
sg16
F1.0
sg17
F0.5
sg18
F0.6
sasS'vocabDic'
p37
(dp38
g9
F9.319066194769519
sg10
F8.416955466859559
sg11
F8.441929401406991
sg12
F8.890570021971223
sg13
F8.993904764365123
sg14
F11.551491144093657
sg15
F14.89109118229176
sg16
F13.987535227270458
sg17
F7.730503948989548
sg18
F8.766441480657864
ssS'relevanceth'
p39
F0.7561914630736719
sS'docsScalar'
p40
(lp41
F1.8374388355752553
aF2.1012436587637353
aF1.9157244060668017
aF1.5986105077709065
aF2.0634383387389548
aF1.9400744544704693
aF2.274425285786024
aF0.12267729136963741
aF1.7941594869082318
aF2.5507200629442215
aF1.5908690070307059
aF2.249444375840399
aF1.661324772583615
aF2.090454496036687
aF2.206170324340349
aF2.362307953297612
aF1.9593082679580793
aF0.5420424464167185
aF1.8788294228055935
asb.