ccopy_reg
_reconstructor
p0
(ceventUtils
VSMClassifier
p1
c__builtin__
object
p2
Ntp3
Rp4
(dp5
S'docsScalar'
p6
(lp7
F1.7591242020994702
aF1.8924362284876957
aF1.5033296378372907
aF1.5184055965240497
aF1.8098495947330973
aF1.6180406532456333
aF2.0672098106830092
aF0.12803687993289598
aF1.7164734171362914
aF2.0993826252990204
aF1.4865653511399612
aF1.9773719933285188
aF1.9090909090909092
aF1.746424919657298
aF1.9892288078549436
aF2.0919888225227425
aF1.8823743871327334
aF0.4355790180125584
aF1.697056274847714
asS'docs'
p8
(lp9
(dp10
Vlamb
p11
F0.13043478260869565
sVpolic
p12
F0.391304347826087
sVprofessor
p13
F0.5217391304347826
sVunivers
p14
F0.7391304347826086
sVstate
p15
F1.0
sVdelta
p16
F0.9130434782608695
sVcampu
p17
F0.5217391304347826
sa(dp18
g11
F0.5882352941176471
sg12
F0.35294117647058826
sg13
F0.47058823529411764
sg14
F0.9411764705882353
sg15
F1.0
sg16
F0.7647058823529411
sg17
F0.6470588235294118
sa(dp19
g11
F0.55
sg12
F0.5
sg13
F0.4
sg14
F0.25
sg15
F0.75
sg16
F0.75
sg17
F0.6
sa(dp20
g11
F0.5
sg12
F0.5
sg13
F0.6666666666666666
sg14
F0.16666666666666666
sg15
F0.6666666666666666
sg16
F0.6666666666666666
sg17
F0.6666666666666666
sa(dp21
g11
F1.0
sg12
F0.4666666666666667
sg13
F0.3333333333333333
sg14
F0.5333333333333333
sg15
F0.8666666666666667
sg16
F0.8666666666666667
sg17
F0.4
sa(dp22
g11
F1.0
sg12
F0.5833333333333334
sg13
F0.5
sg14
F0.4166666666666667
sg15
F0.5833333333333334
sg16
F0.5833333333333334
sg17
F0.4166666666666667
sa(dp23
g11
F0.7647058823529411
sg12
F0.7058823529411765
sg13
F0.7058823529411765
sg14
F0.7647058823529411
sg15
F1.0
sg16
F0.9411764705882353
sg17
F0.47058823529411764
sa(dp24
g11
I0
sg12
F0.00819672131147541
sg13
I0
sg14
F0.05737704918032787
sg15
F0.10655737704918032
sg16
F0.03278688524590164
sg17
F0.02459016393442623
sa(dp25
g11
F0.2727272727272727
sg12
F0.45454545454545453
sg13
F0.3181818181818182
sg14
F1.0
sg15
F0.8181818181818182
sg16
F0.7727272727272727
sg17
F0.5454545454545454
sa(dp26
g11
F1.0
sg12
F0.4444444444444444
sg13
F0.5555555555555556
sg14
F0.8888888888888888
sg15
F1.0
sg16
F1.0
sg17
F0.3333333333333333
sa(dp27
g11
I0
sg12
F0.3333333333333333
sg13
F0.5
sg14
F0.5
sg15
F1.0
sg16
F0.7222222222222222
sg17
F0.2777777777777778
sa(dp28
g11
F0.6
sg12
F0.9
sg13
F1.0
sg14
F0.8
sg15
F0.6
sg16
F0.5
sg17
F0.7
sa(dp29
g11
F0.45454545454545453
sg12
F0.45454545454545453
sg13
F0.7272727272727273
sg14
F1.0
sg15
F0.9090909090909091
sg16
F0.8181818181818182
sg17
F0.45454545454545453
sa(dp30
g11
F0.1
sg12
F0.4
sg13
F0.6
sg14
F0.9
sg15
F0.9
sg16
F0.9
sg17
F0.3
sa(dp31
g11
F1.0
sg12
F0.75
sg13
F0.25
sg14
F0.8125
sg15
F0.875
sg16
F0.875
sg17
F0.375
sa(dp32
g11
F0.6666666666666666
sg12
F0.7619047619047619
sg13
F0.5238095238095238
sg14
F0.6666666666666666
sg15
F0.9523809523809523
sg16
F0.9047619047619048
sg17
F0.9523809523809523
sa(dp33
g11
F0.4666666666666667
sg12
F0.4666666666666667
sg13
F0.4666666666666667
sg14
F0.8
sg15
F1.0
sg16
F1.0
sg17
F0.5
sa(dp34
g11
F0.046296296296296294
sg12
F0.12037037037037036
sg13
F0.14814814814814814
sg14
F0.2222222222222222
sg15
F0.23148148148148148
sg16
F0.19444444444444445
sg17
F0.10185185185185185
sa(dp35
g11
F0.3
sg12
F0.3
sg13
F0.5
sg14
F0.3
sg15
F1.0
sg16
F1.0
sg17
F0.6
sasS'roundPrec'
p36
I3
sS'vocabDic'
p37
(dp38
g11
F9.44027831598164
sg12
F8.894135084359814
sg13
F9.187844158304518
sg14
F11.759334281348558
sg15
F15.259359204851007
sg16
F14.205717045452277
sg17
F8.887653601869985
ssS'relevanceth'
p39
F0.907
sS'error'
p40
F0.15
sb.