ccopy_reg
_reconstructor
p0
(ceventUtils
VSMClassifier
p1
c__builtin__
object
p2
Ntp3
Rp4
(dp5
S'docsScalar'
p6
(lp7
F1.7019258867935265
aF1.7950549357115013
aF1.6273131684307567
aF1.319657758147716
aF1.5463218006324269
aF1.8957188610128877
aF0.39458239478236906
aF1.7930075384832747
aF1.7435595774162693
aF2.03100960115899
aF1.7029386365926402
aF1.7146428199482244
aF1.762881298496808
aF0.6555547773570889
aF1.247219128924647
aF1.2707462053326568
aF1.1978241142570356
aF1.9157244060668017
aF2.118962010041709
aF1.298052872665424
aF1.5972190542970022
aF1.73919331542809
aF1.9222382786741086
aF1.2245324449098263
aF1.6599866130651644
aF1.7389652095427326
aF1.307884709852561
aF2.125
aF2.1047565179849186
aF1.8432202628823284
aF1.6583123951777
aF1.681096950363583
aF1.5866631652622432
aF1.6583123951777
aF1.6358234523771014
aF0.6281172263200556
aF0.0
aF0.8921425711997711
aF1.7658016750347576
aF1.9235384061671346
aF1.3215734840822138
asS'docs'
p8
(lp9
(dp10
Vshoot
p11
F0.7241379310344828
sVsaid
p12
F0.27586206896551724
sVcommun
p13
F0.6896551724137931
sVoregon
p14
F0.3793103448275862
sVumpqua
p15
F0.4482758620689655
sVcolleg
p16
F0.6896551724137931
sV2015
p17
F1.0
sa(dp18
g11
F0.7777777777777778
sg12
I0
sg13
F1.0
sg14
F0.7777777777777778
sg15
F0.3333333333333333
sg16
F0.8888888888888888
sg17
F0.3333333333333333
sa(dp19
g11
F0.7222222222222222
sg12
F1.0
sg13
F0.6666666666666666
sg14
F0.3333333333333333
sg15
F0.5
sg16
F0.5555555555555556
sg17
F0.1111111111111111
sa(dp20
g11
F0.3333333333333333
sg12
F1.0
sg13
F0.2857142857142857
sg14
F0.2857142857142857
sg15
F0.42857142857142855
sg16
F0.47619047619047616
sg17
F0.23809523809523808
sa(dp21
g11
F0.6666666666666666
sg12
F0.4
sg13
F0.5333333333333333
sg14
F0.26666666666666666
sg15
F0.26666666666666666
sg16
F0.6
sg17
F1.0
sa(dp22
g11
F0.625
sg12
F1.0
sg13
F0.75
sg14
F0.75
sg15
F0.25
sg16
F0.875
sg17
F0.5
sa(dp23
g11
F0.1346153846153846
sg12
F0.3076923076923077
sg13
F0.09615384615384616
sg14
F0.019230769230769232
sg15
F0.09615384615384616
sg16
F0.15384615384615385
sg17
F0.019230769230769232
sa(dp24
g11
F1.0
sg12
F0.7272727272727273
sg13
F0.6363636363636364
sg14
F0.8181818181818182
sg15
F0.36363636363636365
sg16
F0.6363636363636364
sg17
F0.2727272727272727
sa(dp25
g11
F1.0
sg12
F0.26666666666666666
sg13
F0.7333333333333333
sg14
F0.6
sg15
F0.6
sg16
F0.8
sg17
F0.26666666666666666
sa(dp26
g11
F1.0
sg12
F0.875
sg13
F0.625
sg14
F0.125
sg15
F0.625
sg16
F0.75
sg17
F1.0
sa(dp27
g11
F0.7
sg12
F0.3
sg13
F0.8
sg14
F0.6
sg15
F0.4
sg16
F1.0
sg17
F0.4
sa(dp28
g11
F1.0
sg12
F0.6
sg13
F0.5
sg14
F0.6
sg15
F0.5
sg16
F0.6
sg17
F0.6
sa(dp29
g11
F0.9130434782608695
sg12
F0.9130434782608695
sg13
F0.782608695652174
sg14
F0.21739130434782608
sg15
F0.2608695652173913
sg16
F0.8260869565217391
sg17
F0.17391304347826086
sa(dp30
g11
I0
sg12
I0
sg13
I0
sg14
F0.2727272727272727
sg15
F0.2727272727272727
sg16
F0.2727272727272727
sg17
F0.45454545454545453
sa(dp31
g11
I0
sg12
F0.1111111111111111
sg13
F0.7777777777777778
sg14
F0.2222222222222222
sg15
F0.6666666666666666
sg16
F0.6666666666666666
sg17
I0
sa(dp32
g11
F0.5
sg12
F1.0
sg13
F0.32142857142857145
sg14
F0.14285714285714285
sg15
F0.07142857142857142
sg16
F0.2857142857142857
sg17
F0.39285714285714285
sa(dp33
g11
F0.391304347826087
sg12
F1.0
sg13
F0.2608695652173913
sg14
F0.2608695652173913
sg15
F0.08695652173913043
sg16
F0.34782608695652173
sg17
F0.13043478260869565
sa(dp34
g11
F1.0
sg12
F0.8
sg13
F0.8
sg14
F0.5
sg15
F0.7
sg16
F0.7
sg17
F0.4
sa(dp35
g11
F0.9
sg12
I0
sg13
F1.0
sg14
F0.9
sg15
F0.9
sg16
F0.9
sg17
F0.5
sa(dp36
g11
F0.39622641509433965
sg12
I0
sg13
F0.3584905660377358
sg14
F0.37735849056603776
sg15
F0.3584905660377358
sg16
F0.3584905660377358
sg17
F1.0
sa(dp37
g11
F0.6744186046511628
sg12
F1.0
sg13
F0.5813953488372093
sg14
F0.4418604651162791
sg15
F0.37209302325581395
sg16
F0.6511627906976745
sg17
F0.023255813953488372
sa(dp38
g11
F0.7272727272727273
sg12
F0.9090909090909091
sg13
F0.18181818181818182
sg14
F0.7272727272727273
sg15
F0.18181818181818182
sg16
F1.0
sg17
F0.2727272727272727
sa(dp39
g11
F1.0
sg12
F0.4
sg13
F0.85
sg14
F0.7
sg15
F0.7
sg16
F0.9
sg17
F0.15
sa(dp40
g11
F0.9032258064516129
sg12
F0.3870967741935484
sg13
F0.3870967741935484
sg14
F0.1935483870967742
sg15
F0.3548387096774194
sg16
F0.45161290322580644
sg17
F0.12903225806451613
sa(dp41
g11
F0.4
sg12
F0.9333333333333333
sg13
F0.6666666666666666
sg14
F0.8
sg15
F0.5333333333333333
sg16
F0.5333333333333333
sg17
F0.26666666666666666
sa(dp42
g11
F1.0
sg12
F0.6
sg13
F0.6
sg14
F0.84
sg15
F0.52
sg16
F0.52
sg17
F0.24
sa(dp43
g11
F0.5925925925925926
sg12
F1.0
sg13
F0.37037037037037035
sg14
F0.1111111111111111
sg15
F0.25925925925925924
sg16
F0.37037037037037035
sg17
F0.07407407407407407
sa(dp44
g11
F0.6875
sg12
F0.59375
sg13
F0.90625
sg14
F0.21875
sg15
F0.90625
sg16
F1.0
sg17
F1.0
sa(dp45
g11
F1.0
sg12
F0.8
sg13
F1.0
sg14
F0.3
sg15
F0.8
sg16
F0.9
sg17
F0.5
sa(dp46
g11
F0.96875
sg12
F1.0
sg13
F0.46875
sg14
F0.75
sg15
F0.3125
sg16
F0.71875
sg17
F0.25
sa(dp47
g11
F0.6875
sg12
F1.0
sg13
F0.625
sg14
F0.4375
sg15
F0.5625
sg16
F0.5625
sg17
F0.25
sa(dp48
g11
F1.0
sg12
F0.8260869565217391
sg13
F0.6086956521739131
sg14
F0.30434782608695654
sg15
F0.43478260869565216
sg16
F0.6956521739130435
sg17
F0.08695652173913043
sa(dp49
g11
F0.8
sg12
F1.0
sg13
F0.5
sg14
F0.25
sg15
F0.45
sg16
F0.6
sg17
F0.05
sa(dp50
g11
F0.7272727272727273
sg12
I0
sg13
F0.6363636363636364
sg14
F0.3181818181818182
sg15
F0.5
sg16
F0.6818181818181818
sg17
F1.0
sa(dp51
g11
F0.8571428571428571
sg12
F0.11428571428571428
sg13
F0.45714285714285713
sg14
F0.5714285714285714
sg15
F0.42857142857142855
sg16
F0.45714285714285713
sg17
F1.0
sa(dp52
g11
F0.25
sg12
F0.0625
sg13
F0.3125
sg14
F0.1875
sg15
F0.3125
sg16
F0.3125
sg17
I0
sa(dp53
g11
I0
sg12
I0
sg13
I0
sg14
I0
sg15
I0
sg16
I0
sg17
I0
sa(dp54
g11
F0.42857142857142855
sg12
I0
sg13
F0.42857142857142855
sg14
F0.2857142857142857
sg15
F0.2857142857142857
sg16
F0.42857142857142855
sg17
F0.2857142857142857
sa(dp55
g11
F0.75
sg12
F0.5833333333333334
sg13
F0.75
sg14
F0.16666666666666666
sg15
F0.75
sg16
F1.0
sg17
F0.25
sa(dp56
g11
F1.0
sg12
F0.2
sg13
F0.9
sg14
F0.6
sg15
F0.8
sg16
F0.9
sg17
F0.2
sa(dp57
g11
F1.0
sg12
F0.48484848484848486
sg13
F0.36363636363636365
sg14
F0.06060606060606061
sg15
F0.48484848484848486
sg16
F0.36363636363636365
sg17
F0.09090909090909091
sasS'roundPrec'
p58
I3
sS'vocabDic'
p59
(dp60
g11
F28.23857430078627
sg12
F22.470973865576255
sg13
F23.211652729866714
sg14
F16.713128912951387
sg15
F18.077785979421233
sg16
F25.43006212059178
sg17
F14.912250798502473
ssS'relevanceth'
p61
F0.761
sS'error'
p62
F0.15
sb.