ccopy_reg
_reconstructor
p0
(ceventUtils
VSMClassifier
p1
c__builtin__
object
p2
Ntp3
Rp4
(dp5
S'docsScalar'
p6
(lp7
F1.3508414885813684
aF1.3675068555586842
aF1.8123802642442954
aF1.6289055630494156
aF1.7034845183130463
aF1.691623981711577
aF1.7141387356157236
aF1.547598697464902
aF2.0103040352269073
aF1.5599979967935855
aF0.16563466499998442
aF1.4698369895350272
aF1.5198684153570663
aF1.18975311110077
aF1.6985888500848736
aF0.0
aF1.506330356153162
aF1.7224813928633107
aF1.4571423708371427
aF0.3282065577962242
aF1.1748043621200077
aF1.2762861160413836
aF1.5211529344546524
aF1.826086956521739
aF1.4917126437656307
aF0.9646530752325188
aF1.4732433458733971
aF1.7492709851797799
aF1.674467341549232
aF1.7167901505579042
aF1.724818831066034
aF1.492946378437246
aF1.8445505858895075
aF0.713355268884285
aF1.873418076900809
aF1.3945023048387881
aF1.3922182317935186
aF0.7037037037037037
aF1.0640636282472387
aF0.7180219742846006
aF1.0862780491200215
aF0.8
aF1.307418280640757
aF1.5414279094398156
asS'docs'
p8
(lp9
(dp10
Vdjokov
p11
F0.8318181818181818
sVset
p12
F0.33636363636363636
sVfeder
p13
F1.0
sVslam
p14
F0.031818181818181815
sV2015
p15
F0.03636363636363636
sVopen
p16
F0.09545454545454546
sVfinal
p17
F0.09090909090909091
sa(dp18
g11
F0.9
sg12
F0.14
sg13
F1.0
sg14
F0.035
sg15
F0.045
sg16
F0.1
sg17
F0.165
sa(dp19
g11
F1.0
sg12
F0.08333333333333333
sg13
F0.75
sg14
F0.25
sg15
F0.5
sg16
F0.9166666666666666
sg17
F0.75
sa(dp20
g11
F1.0
sg12
F0.6333333333333333
sg13
F0.9333333333333333
sg14
F0.06666666666666667
sg15
F0.23333333333333334
sg16
F0.43333333333333335
sg17
F0.36666666666666664
sa(dp21
g11
F0.7045454545454546
sg12
F0.36363636363636365
sg13
F0.7272727272727273
sg14
F0.4772727272727273
sg15
F0.22727272727272727
sg16
F1.0
sg17
F0.6818181818181818
sa(dp22
g11
F0.9411764705882353
sg12
F0.23529411764705882
sg13
F1.0
sg14
F0.17647058823529413
sg15
F0.47058823529411764
sg16
F0.7058823529411765
sg17
F0.4117647058823529
sa(dp23
g11
F1.0
sg12
F0.3333333333333333
sg13
F0.7777777777777778
sg14
F0.3333333333333333
sg15
F0.7777777777777778
sg16
F0.5555555555555556
sg17
F0.4444444444444444
sa(dp24
g11
F0.7777777777777778
sg12
F0.6296296296296297
sg13
F1.0
sg14
F0.2222222222222222
sg15
F0.25925925925925924
sg16
F0.4074074074074074
sg17
F0.3333333333333333
sa(dp25
g11
F1.0
sg12
F0.2727272727272727
sg13
F1.0
sg14
F0.45454545454545453
sg15
F0.9090909090909091
sg16
F0.6363636363636364
sg17
F0.7272727272727273
sa(dp26
g11
F0.75
sg12
F0.1875
sg13
F1.0
sg14
F0.25
sg15
F0.4375
sg16
F0.4375
sg17
F0.625
sa(dp27
g11
I0
sg12
I0
sg13
I0
sg14
I0
sg15
F0.07407407407407407
sg16
F0.14814814814814814
sg17
I0
sa(dp28
g11
F1.0
sg12
F0.23076923076923078
sg13
F0.8461538461538461
sg14
F0.10256410256410256
sg15
F0.1794871794871795
sg16
F0.48717948717948717
sg17
F0.3333333333333333
sa(dp29
g11
F1.0
sg12
F0.275
sg13
F0.8
sg14
F0.25
sg15
F0.175
sg16
F0.525
sg17
F0.475
sa(dp30
g11
F0.5263157894736842
sg12
F0.05263157894736842
sg13
F0.42105263157894735
sg14
I0
sg15
F0.47368421052631576
sg16
F0.5789473684210527
sg17
F0.631578947368421
sa(dp31
g11
F0.9285714285714286
sg12
F0.42857142857142855
sg13
F1.0
sg14
F0.14285714285714285
sg15
F0.2857142857142857
sg16
F0.6071428571428571
sg17
F0.6071428571428571
sa(dp32
g11
I0
sg12
I0
sg13
I0
sg14
I0
sg15
I0
sg16
I0
sg17
I0
sa(dp33
g11
F0.7941176470588235
sg12
F0.3235294117647059
sg13
F1.0
sg14
F0.29411764705882354
sg15
F0.17647058823529413
sg16
F0.4411764705882353
sg17
F0.47058823529411764
sa(dp34
g11
F0.8181818181818182
sg12
F0.36363636363636365
sg13
F0.8181818181818182
sg14
F0.09090909090909091
sg15
F0.36363636363636365
sg16
F0.9090909090909091
sg17
F0.7272727272727273
sa(dp35
g11
F0.6666666666666666
sg12
F0.2916666666666667
sg13
F1.0
sg14
F0.16666666666666666
sg15
F0.375
sg16
F0.2916666666666667
sg17
F0.5833333333333334
sa(dp36
g11
F0.027624309392265192
sg12
I0
sg13
F0.027624309392265192
sg14
F0.0055248618784530384
sg15
F0.281767955801105
sg16
F0.16022099447513813
sg17
F0.03314917127071823
sa(dp37
g11
I0
sg12
F0.18181818181818182
sg13
I0
sg14
F0.2727272727272727
sg15
F0.8181818181818182
sg16
F0.7272727272727273
sg17
F0.2727272727272727
sa(dp38
g11
I0
sg12
I0
sg13
I0
sg14
F0.375
sg15
F1.0
sg16
F0.625
sg17
F0.3125
sa(dp39
g11
F0.675
sg12
F0.675
sg13
F1.0
sg14
F0.125
sg15
F0.2625
sg16
F0.55
sg17
F0.125
sa(dp40
g11
F0.7391304347826086
sg12
F0.6086956521739131
sg13
F0.6956521739130435
sg14
F0.2608695652173913
sg15
F1.0
sg16
F0.7391304347826086
sg17
F0.5652173913043478
sa(dp41
g11
F0.7727272727272727
sg12
F0.045454545454545456
sg13
F1.0
sg14
F0.045454545454545456
sg15
F0.4090909090909091
sg16
F0.45454545454545453
sg17
F0.5
sa(dp42
g11
I0
sg12
F0.16666666666666666
sg13
I0
sg14
F0.16666666666666666
sg15
F0.25
sg16
F0.5
sg17
F0.75
sa(dp43
g11
F0.6507936507936508
sg12
F0.5317460317460317
sg13
F1.0
sg14
F0.05555555555555555
sg15
F0.36507936507936506
sg16
F0.4126984126984127
sg17
F0.3968253968253968
sa(dp44
g11
F0.9285714285714286
sg12
F0.42857142857142855
sg13
F1.0
sg14
F0.32142857142857145
sg15
F0.2857142857142857
sg16
F0.6071428571428571
sg17
F0.6785714285714286
sa(dp45
g11
F0.9629629629629629
sg12
F0.4074074074074074
sg13
F1.0
sg14
F0.3333333333333333
sg15
F0.14814814814814814
sg16
F0.5185185185185185
sg17
F0.5555555555555556
sa(dp46
g11
F0.5789473684210527
sg12
F0.631578947368421
sg13
F1.0
sg14
F0.3684210526315789
sg15
F0.3157894736842105
sg16
F0.42105263157894735
sg17
F0.8947368421052632
sa(dp47
g11
F1.0
sg12
F0.4
sg13
F0.85
sg14
F0.35
sg15
F0.5
sg16
F0.6
sg17
F0.6
sa(dp48
g11
F0.9333333333333333
sg12
F0.36666666666666664
sg13
F1.0
sg14
F0.13333333333333333
sg15
F0.2
sg16
F0.23333333333333334
sg17
F0.3333333333333333
sa(dp49
g11
F1.0
sg12
F0.15384615384615385
sg13
F0.9230769230769231
sg14
F0.5384615384615384
sg15
F0.6153846153846154
sg16
F0.6153846153846154
sg17
F0.6923076923076923
sa(dp50
g11
I0
sg12
F0.15384615384615385
sg13
I0
sg14
F0.07692307692307693
sg15
F0.23076923076923078
sg16
F0.46153846153846156
sg17
F0.46153846153846156
sa(dp51
g11
F0.8421052631578947
sg12
F0.2631578947368421
sg13
F0.8947368421052632
sg14
F0.42105263157894735
sg15
F0.21052631578947367
sg16
F0.8421052631578947
sg17
F1.0
sa(dp52
g11
I0
sg12
F0.11764705882352941
sg13
I0
sg14
F0.47058823529411764
sg15
F0.35294117647058826
sg16
F0.7647058823529411
sg17
F1.0
sa(dp53
g11
I0
sg12
F0.2222222222222222
sg13
F1.0
sg14
F0.4444444444444444
sg15
F0.2222222222222222
sg16
F0.6666666666666666
sg17
F0.4444444444444444
sa(dp54
g11
I0
sg12
I0
sg13
I0
sg14
I0
sg15
F0.2222222222222222
sg16
F0.2222222222222222
sg17
F0.6296296296296297
sa(dp55
g11
I0
sg12
I0
sg13
I0
sg14
I0
sg15
F1.0
sg16
F0.36363636363636365
sg17
I0
sa(dp56
g11
I0
sg12
I0
sg13
F0.06666666666666667
sg14
F0.06666666666666667
sg15
F0.3333333333333333
sg16
F0.5333333333333333
sg17
F0.3333333333333333
sa(dp57
g11
F0.3
sg12
I0
sg13
F0.05
sg14
F0.05
sg15
F0.25
sg16
F1.0
sg17
F0.15
sa(dp58
g11
I0
sg12
I0
sg13
F0.06666666666666667
sg14
F0.06666666666666667
sg15
F0.4
sg16
F0.6
sg17
F0.3333333333333333
sa(dp59
g11
F0.058823529411764705
sg12
F0.29411764705882354
sg13
I0
sg14
F0.17647058823529413
sg15
F0.6470588235294118
sg16
F1.0
sg17
F0.4117647058823529
sa(dp60
g11
F0.56
sg12
I0
sg13
F0.56
sg14
I0
sg15
F0.48
sg16
F1.0
sg17
F0.72
sasS'roundPrec'
p61
I3
sS'vocabDic'
p62
(dp63
g11
F24.669190788236303
sg12
F10.829398358766714
sg13
F27.20819571611928
sg14
F8.46903243064716
sg15
F16.799982475486214
sg16
F23.895023577600174
sg17
F20.618426576234143
ssS'relevanceth'
p64
F0.699
sS'error'
p65
F0.15
sb.