ccopy_reg
_reconstructor
p0
(ceventUtils
VSMClassifier
p1
c__builtin__
object
p2
Ntp3
Rp4
(dp5
S'docsScalar'
p6
(lp7
F1.3512314554808853
aF1.369114677446707
aF1.8427786989579984
aF1.6289055630494156
aF1.6366792624898938
aF1.686502492568406
aF1.6850834320114558
aF1.5387094872474807
aF1.9666643320712667
aF1.5848402916382458
aF0.16563466499998442
aF1.4771990482906745
aF1.5124483462254175
aF1.4576192025396029
aF1.7165164058139881
aF0.0
aF1.4916143921301135
aF1.8044939310253827
aF1.4766704288891124
aF0.32857835803755264
aF1.1427095536342304
aF1.219951330996446
aF1.5193028829038666
aF1.826086956521739
aF1.5347220923758302
aF0.950146187582615
aF1.6161076637562237
aF1.743062048844633
aF1.6559325115635672
aF1.6776186790009713
asS'docs'
p8
(lp9
(dp10
Vdjokov
p11
F0.8318181818181818
sVset
p12
F0.33636363636363636
sVfeder
p13
F1.0
sVnovak
p14
F0.045454545454545456
sV2015
p15
F0.03636363636363636
sVopen
p16
F0.09545454545454546
sVfinal
p17
F0.09090909090909091
sa(dp18
g11
F0.9
sg12
F0.14
sg13
F1.0
sg14
F0.075
sg15
F0.045
sg16
F0.1
sg17
F0.165
sa(dp19
g11
F1.0
sg12
F0.08333333333333333
sg13
F0.75
sg14
F0.4166666666666667
sg15
F0.5
sg16
F0.9166666666666666
sg17
F0.75
sa(dp20
g11
F1.0
sg12
F0.6333333333333333
sg13
F0.9333333333333333
sg14
F0.06666666666666667
sg15
F0.23333333333333334
sg16
F0.43333333333333335
sg17
F0.36666666666666664
sa(dp21
g11
F0.7045454545454546
sg12
F0.36363636363636365
sg13
F0.7272727272727273
sg14
F0.06818181818181818
sg15
F0.22727272727272727
sg16
F1.0
sg17
F0.6818181818181818
sa(dp22
g11
F0.9411764705882353
sg12
F0.23529411764705882
sg13
F1.0
sg14
F0.11764705882352941
sg15
F0.47058823529411764
sg16
F0.7058823529411765
sg17
F0.4117647058823529
sa(dp23
g11
F1.0
sg12
F0.3333333333333333
sg13
F0.7777777777777778
sg14
F0.1111111111111111
sg15
F0.7777777777777778
sg16
F0.5555555555555556
sg17
F0.4444444444444444
sa(dp24
g11
F0.7777777777777778
sg12
F0.6296296296296297
sg13
F1.0
sg14
F0.14814814814814814
sg15
F0.25925925925925924
sg16
F0.4074074074074074
sg17
F0.3333333333333333
sa(dp25
g11
F1.0
sg12
F0.2727272727272727
sg13
F1.0
sg14
F0.18181818181818182
sg15
F0.9090909090909091
sg16
F0.6363636363636364
sg17
F0.7272727272727273
sa(dp26
g11
F0.75
sg12
F0.1875
sg13
F1.0
sg14
F0.375
sg15
F0.4375
sg16
F0.4375
sg17
F0.625
sa(dp27
g11
I0
sg12
I0
sg13
I0
sg14
I0
sg15
F0.07407407407407407
sg16
F0.14814814814814814
sg17
I0
sa(dp28
g11
F1.0
sg12
F0.23076923076923078
sg13
F0.8461538461538461
sg14
F0.1794871794871795
sg15
F0.1794871794871795
sg16
F0.48717948717948717
sg17
F0.3333333333333333
sa(dp29
g11
F1.0
sg12
F0.275
sg13
F0.8
sg14
F0.2
sg15
F0.175
sg16
F0.525
sg17
F0.475
sa(dp30
g11
F0.5263157894736842
sg12
F0.05263157894736842
sg13
F0.42105263157894735
sg14
F0.8421052631578947
sg15
F0.47368421052631576
sg16
F0.5789473684210527
sg17
F0.631578947368421
sa(dp31
g11
F0.9285714285714286
sg12
F0.42857142857142855
sg13
F1.0
sg14
F0.2857142857142857
sg15
F0.2857142857142857
sg16
F0.6071428571428571
sg17
F0.6071428571428571
sa(dp32
g11
I0
sg12
I0
sg13
I0
sg14
I0
sg15
I0
sg16
I0
sg17
I0
sa(dp33
g11
F0.7941176470588235
sg12
F0.3235294117647059
sg13
F1.0
sg14
F0.20588235294117646
sg15
F0.17647058823529413
sg16
F0.4411764705882353
sg17
F0.47058823529411764
sa(dp34
g11
F0.8181818181818182
sg12
F0.36363636363636365
sg13
F0.8181818181818182
sg14
F0.5454545454545454
sg15
F0.36363636363636365
sg16
F0.9090909090909091
sg17
F0.7272727272727273
sa(dp35
g11
F0.6666666666666666
sg12
F0.2916666666666667
sg13
F1.0
sg14
F0.2916666666666667
sg15
F0.375
sg16
F0.2916666666666667
sg17
F0.5833333333333334
sa(dp36
g11
F0.027624309392265192
sg12
I0
sg13
F0.027624309392265192
sg14
F0.016574585635359115
sg15
F0.281767955801105
sg16
F0.16022099447513813
sg17
F0.03314917127071823
sa(dp37
g11
I0
sg12
F0.18181818181818182
sg13
I0
sg14
I0
sg15
F0.8181818181818182
sg16
F0.7272727272727273
sg17
F0.2727272727272727
sa(dp38
g11
I0
sg12
I0
sg13
I0
sg14
I0
sg15
F1.0
sg16
F0.625
sg17
F0.3125
sa(dp39
g11
F0.675
sg12
F0.675
sg13
F1.0
sg14
F0.1
sg15
F0.2625
sg16
F0.55
sg17
F0.125
sa(dp40
g11
F0.7391304347826086
sg12
F0.6086956521739131
sg13
F0.6956521739130435
sg14
F0.2608695652173913
sg15
F1.0
sg16
F0.7391304347826086
sg17
F0.5652173913043478
sa(dp41
g11
F0.7727272727272727
sg12
F0.045454545454545456
sg13
F1.0
sg14
F0.36363636363636365
sg15
F0.4090909090909091
sg16
F0.45454545454545453
sg17
F0.5
sa(dp42
g11
I0
sg12
F0.16666666666666666
sg13
I0
sg14
I0
sg15
F0.25
sg16
F0.5
sg17
F0.75
sa(dp43
g11
F0.6507936507936508
sg12
F0.5317460317460317
sg13
F1.0
sg14
F0.6666666666666666
sg15
F0.36507936507936506
sg16
F0.4126984126984127
sg17
F0.3968253968253968
sa(dp44
g11
F0.9285714285714286
sg12
F0.42857142857142855
sg13
F1.0
sg14
F0.2857142857142857
sg15
F0.2857142857142857
sg16
F0.6071428571428571
sg17
F0.6785714285714286
sa(dp45
g11
F0.9629629629629629
sg12
F0.4074074074074074
sg13
F1.0
sg14
F0.2222222222222222
sg15
F0.14814814814814814
sg16
F0.5185185185185185
sg17
F0.5555555555555556
sa(dp46
g11
F0.5789473684210527
sg12
F0.631578947368421
sg13
F1.0
sg14
F0.05263157894736842
sg15
F0.3157894736842105
sg16
F0.42105263157894735
sg17
F0.8947368421052632
sasS'roundPrec'
p47
I3
sS'vocabDic'
p48
(dp49
g11
F19.974928662333312
sg12
F8.857894561566322
sg13
F21.79704861760376
sg14
F6.1243197583320725
sg15
F11.135524535765116
sg16
F14.992097435974342
sg17
F13.508741642431572
ssS'relevanceth'
p50
F0.723
sS'error'
p51
F0.15
sb.